target datalayout = "e-m:e-p270:32:32-p271:32:32-p272:64:64-i64:64-i128:128-f80:128-n8:16:32:64-S128"
target triple = "x86_64-pc-linux-gnu"

%class.Paintbox = type <{ %class.QWidget, %"class.Ui::Paintbox", i32, [4 x i8], %class.QHash, ptr, i32, [4 x i8], ptr, i8, [3 x i8], %class.QPoint, [4 x i8] }>
%class.QWidget = type { %class.QObject, %class.QPaintDevice, ptr }
%class.QObject = type { ptr, %class.QScopedPointer }
%class.QScopedPointer = type { ptr }
%class.QPaintDevice = type { ptr, i16, ptr }
%"class.Ui::Paintbox" = type { %class.Ui_Paintbox }
%class.Ui_Paintbox = type { ptr, ptr, ptr, ptr, ptr, ptr, ptr, ptr, ptr, ptr, ptr, ptr, ptr, ptr, ptr, ptr, ptr, ptr, ptr, ptr, ptr, ptr, ptr, ptr, ptr, ptr, ptr, ptr, ptr, ptr, ptr, ptr, ptr, ptr, ptr, ptr, ptr, ptr, ptr, ptr, ptr, ptr, ptr, ptr, ptr, ptr, ptr, ptr, ptr, ptr, ptr, ptr, ptr, ptr, ptr, ptr, ptr, ptr, ptr, ptr, ptr, ptr, ptr, ptr, ptr, ptr, ptr, ptr, ptr, ptr, ptr, ptr, ptr, ptr, ptr, ptr, ptr, ptr, ptr, ptr, ptr, ptr, ptr, ptr, ptr, ptr, ptr, ptr, ptr, ptr, ptr, ptr, ptr }
%class.QHash = type { %union.anon }
%union.anon = type { ptr }
%class.QPoint = type { i32, i32 }
%class.QPointF = type { double, double }

; Function Attrs: mustprogress nounwind uwtable
define linkonce_odr void @_ZN7QPointFC2Edd(ptr noundef nonnull align 8 dereferenceable(16) %0, double noundef %1, double noundef %2) unnamed_addr #3 comdat align 2 {
  %4 = alloca ptr, align 8
  %5 = alloca double, align 8
  %6 = alloca double, align 8
  store ptr %0, ptr %4, align 8
  store double %1, ptr %5, align 8
  store double %2, ptr %6, align 8
  %7 = load ptr, ptr %4, align 8
  %8 = getelementptr inbounds %class.QPointF, ptr %7, i32 0, i32 0
  %9 = load double, ptr %5, align 8
  store double %9, ptr %8, align 8
  %10 = getelementptr inbounds %class.QPointF, ptr %7, i32 0, i32 1
  %11 = load double, ptr %6, align 8
  store double %11, ptr %10, align 8
  ret void
}

; Function Attrs: mustprogress uwtable
define linkonce_odr void @_ZN13QGraphicsView8centerOnEdd(ptr noundef nonnull align 8 dereferenceable(48) %0, double noundef %1, double noundef %2) #0 comdat align 2 {
  %4 = alloca ptr, align 8
  %5 = alloca double, align 8
  %6 = alloca double, align 8
  %7 = alloca %class.QPointF, align 8
  store ptr %0, ptr %4, align 8
  store double %1, ptr %5, align 8
  store double %2, ptr %6, align 8
  %8 = load ptr, ptr %4, align 8
  %9 = load double, ptr %5, align 8
  %10 = load double, ptr %6, align 8
  call void @_ZN7QPointFC2Edd(ptr noundef nonnull align 8 dereferenceable(16) %7, double noundef %9, double noundef %10)
  call void @_ZN13QGraphicsView8centerOnERK7QPointF(ptr noundef nonnull align 8 dereferenceable(48) %8, ptr noundef nonnull align 8 dereferenceable(16) %7)
  ret void
}

; Function Attrs: mustprogress uwtable
define linkonce_odr void @_ZN13QGraphicsItem6setPosEdd(ptr noundef nonnull align 8 dereferenceable(16) %0, double noundef %1, double noundef %2) #0 comdat align 2 {
  %4 = alloca ptr, align 8
  %5 = alloca double, align 8
  %6 = alloca double, align 8
  %7 = alloca %class.QPointF, align 8
  store ptr %0, ptr %4, align 8
  store double %1, ptr %5, align 8
  store double %2, ptr %6, align 8
  %8 = load ptr, ptr %4, align 8
  %9 = load double, ptr %5, align 8
  %10 = load double, ptr %6, align 8
  call void @_ZN7QPointFC2Edd(ptr noundef nonnull align 8 dereferenceable(16) %7, double noundef %9, double noundef %10)
  call void @_ZN13QGraphicsItem6setPosERK7QPointF(ptr noundef nonnull align 8 dereferenceable(16) %8, ptr noundef nonnull align 8 dereferenceable(16) %7)
  ret void
}

; Function Attrs: mustprogress nounwind uwtable
define linkonce_odr noundef i32 @_ZNK6QPoint1yEv(ptr noundef nonnull align 4 dereferenceable(8) %0) #3 comdat align 2 {
  %2 = alloca ptr, align 8
  store ptr %0, ptr %2, align 8
  %3 = load ptr, ptr %2, align 8
  %4 = getelementptr inbounds %class.QPoint, ptr %3, i32 0, i32 1
  %5 = load i32, ptr %4, align 4
  ret i32 %5
}

; Function Attrs: mustprogress nounwind uwtable
define linkonce_odr noundef i32 @_ZNK6QPoint1xEv(ptr noundef nonnull align 4 dereferenceable(8) %0) #3 comdat align 2 {
  %2 = alloca ptr, align 8
  store ptr %0, ptr %2, align 8
  %3 = load ptr, ptr %2, align 8
  %4 = getelementptr inbounds %class.QPoint, ptr %3, i32 0, i32 0
  %5 = load i32, ptr %4, align 4
  ret i32 %5
}

; Function Attrs: mustprogress uwtable
define void @_ZN8Paintbox15setPixmapOffsetEdd(ptr noundef nonnull align 8 dereferenceable(844) %0, double noundef %1, double noundef %2) #0 align 2 {
  %4 = alloca ptr, align 8
  %5 = alloca double, align 8
  %6 = alloca double, align 8
  store ptr %0, ptr %4, align 8
  store double %1, ptr %5, align 8
  store double %2, ptr %6, align 8
  %7 = load ptr, ptr %4, align 8
  %8 = getelementptr inbounds %class.Paintbox, ptr %7, i32 0, i32 8
  %9 = load ptr, ptr %8, align 8
  %10 = getelementptr inbounds %class.Paintbox, ptr %7, i32 0, i32 11
  %11 = call noundef i32 @_ZNK6QPoint1xEv(ptr noundef nonnull align 4 dereferenceable(8) %10)
  %12 = sub nsw i32 0, %11
  %13 = sitofp i32 %12 to double
  %14 = load double, ptr %5, align 8
  %15 = fsub double %13, %14
  %16 = getelementptr inbounds %class.Paintbox, ptr %7, i32 0, i32 11
  %17 = call noundef i32 @_ZNK6QPoint1yEv(ptr noundef nonnull align 4 dereferenceable(8) %16)
  %18 = sub nsw i32 0, %17
  %19 = sitofp i32 %18 to double
  %20 = load double, ptr %6, align 8
  %21 = fsub double %19, %20
  call void @_ZN13QGraphicsItem6setPosEdd(ptr noundef nonnull align 8 dereferenceable(16) %9, double noundef %15, double noundef %21)
  %22 = getelementptr inbounds i8, ptr %7, i64 48
  %23 = getelementptr inbounds %class.Ui_Paintbox, ptr %22, i32 0, i32 29
  %24 = load ptr, ptr %23, align 8
  call void @_ZN13QGraphicsView8centerOnEdd(ptr noundef nonnull align 8 dereferenceable(48) %24, double noundef 0.000000e+00, double noundef 0.000000e+00)
  ret void
}

; Function Attrs: mustprogress nounwind uwtable
define linkonce_odr void @_ZN6QPoint4setYEi(ptr noundef nonnull align 4 dereferenceable(8) %0, i32 noundef %1) #3 comdat align 2 {
  %3 = alloca ptr, align 8
  %4 = alloca i32, align 4
  store ptr %0, ptr %3, align 8
  store i32 %1, ptr %4, align 4
  %5 = load ptr, ptr %3, align 8
  %6 = load i32, ptr %4, align 4
  %7 = getelementptr inbounds %class.QPoint, ptr %5, i32 0, i32 1
  store i32 %6, ptr %7, align 4
  ret void
}

; Function Attrs: mustprogress nounwind uwtable
define linkonce_odr void @_ZN6QPoint4setXEi(ptr noundef nonnull align 4 dereferenceable(8) %0, i32 noundef %1) #3 comdat align 2 {
  %3 = alloca ptr, align 8
  %4 = alloca i32, align 4
  store ptr %0, ptr %3, align 8
  store i32 %1, ptr %4, align 4
  %5 = load ptr, ptr %3, align 8
  %6 = load i32, ptr %4, align 4
  %7 = getelementptr inbounds %class.QPoint, ptr %5, i32 0, i32 0
  store i32 %6, ptr %7, align 4
  ret void
}

; Function Attrs: mustprogress uwtable
define void @_ZN8Paintbox14setPixmapDeltaEdd(ptr noundef nonnull align 8 dereferenceable(844) %0, double noundef %1, double noundef %2) #0 align 2 {
  %4 = alloca ptr, align 8
  %5 = alloca double, align 8
  %6 = alloca double, align 8
  store ptr %0, ptr %4, align 8
  store double %1, ptr %5, align 8
  store double %2, ptr %6, align 8
  %7 = load ptr, ptr %4, align 8
  %8 = getelementptr inbounds %class.Paintbox, ptr %7, i32 0, i32 11
  %9 = load double, ptr %5, align 8
  %10 = fptosi double %9 to i32
  call void @_ZN6QPoint4setXEi(ptr noundef nonnull align 4 dereferenceable(8) %8, i32 noundef %10)
  %11 = getelementptr inbounds %class.Paintbox, ptr %7, i32 0, i32 11
  %12 = load double, ptr %6, align 8
  %13 = fptosi double %12 to i32
  call void @_ZN6QPoint4setYEi(ptr noundef nonnull align 4 dereferenceable(8) %11, i32 noundef %13)
  call void @_ZN8Paintbox15setPixmapOffsetEdd(ptr noundef nonnull align 8 dereferenceable(844) %7, double noundef 0.000000e+00, double noundef 0.000000e+00)
  ret void
}