; Function Attrs: mustprogress uwtable
define void @_ZN8Paintbox14setPixmapDeltaEdd(ptr nocapture noundef nonnull align 8 dereferenceable(844) %0, double noundef %1, double noundef %2) local_unnamed_addr #0 align 2 {
  %4 = alloca %class.QPointF, align 8
  %5 = alloca %class.QPointF, align 16
  %6 = getelementptr inbounds i8, ptr %0, i64 836
  %7 = insertelement <2 x double> poison, double %1, i64 0
  %8 = insertelement <2 x double> %7, double %2, i64 1
  %9 = fptosi <2 x double> %8 to <2 x i32>
  store <2 x i32> %9, ptr %6, align 4
  %10 = getelementptr inbounds i8, ptr %0, i64 824
  %11 = load ptr, ptr %10, align 8
  call void @llvm.lifetime.start.p0(i64 16, ptr nonnull %5)
  %12 = sub nsw <2 x i32> zeroinitializer, %9
  %13 = sitofp <2 x i32> %12 to <2 x double>
  store <2 x double> %13, ptr %5, align 16
  call void @_ZN13QGraphicsItem6setPosERK7QPointF(ptr noundef nonnull align 8 dereferenceable(16) %11, ptr noundef nonnull align 8 dereferenceable(16) %5)
  call void @llvm.lifetime.end.p0(i64 16, ptr nonnull %5)
  %14 = getelementptr inbounds i8, ptr %0, i64 280
  %15 = load ptr, ptr %14, align 8
  call void @llvm.lifetime.start.p0(i64 16, ptr nonnull %4)
  call void @llvm.memset.p0.i64(ptr noundef nonnull align 8 dereferenceable(16) %4, i8 0, i64 16, i1 false)
  call void @_ZN13QGraphicsView8centerOnERK7QPointF(ptr noundef nonnull align 8 dereferenceable(48) %15, ptr noundef nonnull align 8 dereferenceable(16) %4)
  call void @llvm.lifetime.end.p0(i64 16, ptr nonnull %4)
  ret void
}